target datalayout = "e-m:e-p270:32:32-p271:32:32-p272:64:64-i64:64-i128:128-f80:128-n8:16:32:64-S128"
target triple = "x86_64-pc-linux-gnu"

%struct.AVFormatContext = type { ptr, ptr, ptr, ptr, ptr, i32, i32, ptr, i32, ptr, i32, ptr, ptr, i64, i64, i64, i32, i32, i32, i64, i64, ptr, i32, i32, ptr, i32, i32, i32, i32, ptr, i64, i32, i32, %struct.AVIOInterruptCB, i32, i32, i32, i32, i64, i32, i32, i32, i32, i32, i32, i32, i32, i32, i32, i32, i32, i64, i32, i32, i32, i32, i32, ptr, ptr, ptr, ptr, i32, ptr, ptr, ptr, ptr, i32, ptr, ptr, i64, ptr, ptr, ptr, i64 }
%struct.AVIOInterruptCB = type { ptr, ptr }
%struct.AVStream = type { ptr, i32, i32, ptr, ptr, %struct.AVRational, i64, i64, i64, i32, i32, %struct.AVRational, ptr, %struct.AVRational, %struct.AVPacket, i32, %struct.AVRational, i32 }
%struct.AVPacket = type { ptr, i64, i64, ptr, i32, i32, i32, ptr, i32, i64, i64, ptr, ptr, %struct.AVRational }
%struct.AVRational = type { i32, i32 }
%struct.AVCodecParameters = type { i32, i32, i32, ptr, i32, ptr, i32, i32, i64, i32, i32, i32, i32, i32, i32, %struct.AVRational, %struct.AVRational, i32, i32, i32, i32, i32, i32, i32, %struct.AVChannelLayout, i32, i32, i32, i32, i32, i32 }
%struct.AVChannelLayout = type { i32, i32, %union.anon.2, ptr }
%union.anon.2 = type { i64 }

; Function Attrs: nounwind uwtable
define internal i32 @interleave_compare_dts(ptr noundef %0, ptr noundef %1, ptr noundef %2) #0 {
  %4 = alloca i32, align 4
  %5 = alloca ptr, align 8
  %6 = alloca ptr, align 8
  %7 = alloca ptr, align 8
  %8 = alloca ptr, align 8
  %9 = alloca ptr, align 8
  %10 = alloca i32, align 4
  %11 = alloca i32, align 4
  %12 = alloca i32, align 4
  %13 = alloca i64, align 8
  %14 = alloca i64, align 8
  %15 = alloca %struct.AVRational, align 4
  %16 = alloca %struct.AVRational, align 4
  %17 = alloca i32, align 4
  store ptr %0, ptr %5, align 8, !tbaa !14
  store ptr %1, ptr %6, align 8, !tbaa !128
  store ptr %2, ptr %7, align 8, !tbaa !128
  call void @llvm.lifetime.start.p0(i64 8, ptr %8) #11
  %18 = load ptr, ptr %5, align 8, !tbaa !14
  %19 = getelementptr inbounds nuw %struct.AVFormatContext, ptr %18, i32 0, i32 7
  %20 = load ptr, ptr %19, align 8, !tbaa !50
  %21 = load ptr, ptr %7, align 8, !tbaa !128
  %22 = getelementptr inbounds nuw %struct.AVPacket, ptr %21, i32 0, i32 5
  %23 = load i32, ptr %22, align 4, !tbaa !130
  %24 = sext i32 %23 to i64
  %25 = getelementptr inbounds ptr, ptr %20, i64 %24
  %26 = load ptr, ptr %25, align 8, !tbaa !51
  store ptr %26, ptr %8, align 8, !tbaa !51
  call void @llvm.lifetime.start.p0(i64 8, ptr %9) #11
  %27 = load ptr, ptr %5, align 8, !tbaa !14
  %28 = getelementptr inbounds nuw %struct.AVFormatContext, ptr %27, i32 0, i32 7
  %29 = load ptr, ptr %28, align 8, !tbaa !50
  %30 = load ptr, ptr %6, align 8, !tbaa !128
  %31 = getelementptr inbounds nuw %struct.AVPacket, ptr %30, i32 0, i32 5
  %32 = load i32, ptr %31, align 4, !tbaa !130
  %33 = sext i32 %32 to i64
  %34 = getelementptr inbounds ptr, ptr %29, i64 %33
  %35 = load ptr, ptr %34, align 8, !tbaa !51
  store ptr %35, ptr %9, align 8, !tbaa !51
  call void @llvm.lifetime.start.p0(i64 4, ptr %10) #11
  %36 = load ptr, ptr %6, align 8, !tbaa !128
  %37 = getelementptr inbounds nuw %struct.AVPacket, ptr %36, i32 0, i32 2
  %38 = load i64, ptr %37, align 8, !tbaa !144
  %39 = load ptr, ptr %9, align 8, !tbaa !51
  %40 = getelementptr inbounds nuw %struct.AVStream, ptr %39, i32 0, i32 5
  %41 = load ptr, ptr %7, align 8, !tbaa !128
  %42 = getelementptr inbounds nuw %struct.AVPacket, ptr %41, i32 0, i32 2
  %43 = load i64, ptr %42, align 8, !tbaa !144
  %44 = load ptr, ptr %8, align 8, !tbaa !51
  %45 = getelementptr inbounds nuw %struct.AVStream, ptr %44, i32 0, i32 5
  %46 = load i64, ptr %40, align 8
  %47 = load i64, ptr %45, align 8
  %48 = call i32 @av_compare_ts(i64 noundef %38, i64 %46, i64 noundef %43, i64 %47)
  store i32 %48, ptr %10, align 4, !tbaa !16
  %49 = load ptr, ptr %5, align 8, !tbaa !14
  %50 = getelementptr inbounds nuw %struct.AVFormatContext, ptr %49, i32 0, i32 46
  %51 = load i32, ptr %50, align 4, !tbaa !156
  %52 = icmp ne i32 %51, 0
  br i1 %52, label %53, label %174

53:                                               ; preds = %3
  call void @llvm.lifetime.start.p0(i64 4, ptr %11) #11
  %54 = load ptr, ptr %8, align 8, !tbaa !51
  %55 = getelementptr inbounds nuw %struct.AVStream, ptr %54, i32 0, i32 3
  %56 = load ptr, ptr %55, align 8, !tbaa !55
  %57 = getelementptr inbounds nuw %struct.AVCodecParameters, ptr %56, i32 0, i32 0
  %58 = load i32, ptr %57, align 8, !tbaa !64
  %59 = icmp eq i32 %58, 1
  %60 = zext i1 %59 to i32
  store i32 %60, ptr %11, align 4, !tbaa !16
  call void @llvm.lifetime.start.p0(i64 4, ptr %12) #11
  %61 = load ptr, ptr %9, align 8, !tbaa !51
  %62 = getelementptr inbounds nuw %struct.AVStream, ptr %61, i32 0, i32 3
  %63 = load ptr, ptr %62, align 8, !tbaa !55
  %64 = getelementptr inbounds nuw %struct.AVCodecParameters, ptr %63, i32 0, i32 0
  %65 = load i32, ptr %64, align 8, !tbaa !64
  %66 = icmp eq i32 %65, 1
  %67 = zext i1 %66 to i32
  store i32 %67, ptr %12, align 4, !tbaa !16
  %68 = load i32, ptr %11, align 4, !tbaa !16
  %69 = load i32, ptr %12, align 4, !tbaa !16
  %70 = icmp ne i32 %68, %69
  br i1 %70, label %71, label %173

71:                                               ; preds = %53
  call void @llvm.lifetime.start.p0(i64 8, ptr %13) #11
  call void @llvm.lifetime.start.p0(i64 8, ptr %14) #11
  %72 = load ptr, ptr %5, align 8, !tbaa !14
  %73 = getelementptr inbounds nuw %struct.AVFormatContext, ptr %72, i32 0, i32 46
  %74 = load i32, ptr %73, align 4, !tbaa !156
  %75 = load i32, ptr %11, align 4, !tbaa !16
  %76 = mul nsw i32 %75, %74
  store i32 %76, ptr %11, align 4, !tbaa !16
  %77 = load ptr, ptr %5, align 8, !tbaa !14
  %78 = getelementptr inbounds nuw %struct.AVFormatContext, ptr %77, i32 0, i32 46
  %79 = load i32, ptr %78, align 4, !tbaa !156
  %80 = load i32, ptr %12, align 4, !tbaa !16
  %81 = mul nsw i32 %80, %79
  store i32 %81, ptr %12, align 4, !tbaa !16
  %82 = load ptr, ptr %7, align 8, !tbaa !128
  %83 = getelementptr inbounds nuw %struct.AVPacket, ptr %82, i32 0, i32 2
  %84 = load i64, ptr %83, align 8, !tbaa !144
  %85 = load ptr, ptr %8, align 8, !tbaa !51
  %86 = getelementptr inbounds nuw %struct.AVStream, ptr %85, i32 0, i32 5
  %87 = getelementptr inbounds nuw %struct.AVRational, ptr %15, i32 0, i32 0
  store i32 1, ptr %87, align 4, !tbaa !137
  %88 = getelementptr inbounds nuw %struct.AVRational, ptr %15, i32 0, i32 1
  store i32 1000000, ptr %88, align 4, !tbaa !138
  %89 = load i64, ptr %86, align 8
  %90 = load i64, ptr %15, align 4
  %91 = call i64 @av_rescale_q(i64 noundef %84, i64 %89, i64 %90) #12
  %92 = load i32, ptr %11, align 4, !tbaa !16
  %93 = sext i32 %92 to i64
  %94 = sub nsw i64 %91, %93
  store i64 %94, ptr %13, align 8, !tbaa !114
  %95 = load ptr, ptr %6, align 8, !tbaa !128
  %96 = getelementptr inbounds nuw %struct.AVPacket, ptr %95, i32 0, i32 2
  %97 = load i64, ptr %96, align 8, !tbaa !144
  %98 = load ptr, ptr %9, align 8, !tbaa !51
  %99 = getelementptr inbounds nuw %struct.AVStream, ptr %98, i32 0, i32 5
  %100 = getelementptr inbounds nuw %struct.AVRational, ptr %16, i32 0, i32 0
  store i32 1, ptr %100, align 4, !tbaa !137
  %101 = getelementptr inbounds nuw %struct.AVRational, ptr %16, i32 0, i32 1
  store i32 1000000, ptr %101, align 4, !tbaa !138
  %102 = load i64, ptr %99, align 8
  %103 = load i64, ptr %16, align 4
  %104 = call i64 @av_rescale_q(i64 noundef %97, i64 %102, i64 %103) #12
  %105 = load i32, ptr %12, align 4, !tbaa !16
  %106 = sext i32 %105 to i64
  %107 = sub nsw i64 %104, %106
  store i64 %107, ptr %14, align 8, !tbaa !114
  %108 = load i64, ptr %13, align 8, !tbaa !114
  %109 = load i64, ptr %14, align 8, !tbaa !114
  %110 = icmp eq i64 %108, %109
  br i1 %110, label %111, label %163

111:                                              ; preds = %71
  %112 = load ptr, ptr %7, align 8, !tbaa !128
  %113 = getelementptr inbounds nuw %struct.AVPacket, ptr %112, i32 0, i32 2
  %114 = load i64, ptr %113, align 8, !tbaa !144
  %115 = load ptr, ptr %8, align 8, !tbaa !51
  %116 = getelementptr inbounds nuw %struct.AVStream, ptr %115, i32 0, i32 5
  %117 = getelementptr inbounds nuw %struct.AVRational, ptr %116, i32 0, i32 0
  %118 = load i32, ptr %117, align 8, !tbaa !63
  %119 = sext i32 %118 to i64
  %120 = mul i64 %114, %119
  %121 = mul i64 %120, 1000000
  %122 = load i32, ptr %11, align 4, !tbaa !16
  %123 = sext i32 %122 to i64
  %124 = load ptr, ptr %8, align 8, !tbaa !51
  %125 = getelementptr inbounds nuw %struct.AVStream, ptr %124, i32 0, i32 5
  %126 = getelementptr inbounds nuw %struct.AVRational, ptr %125, i32 0, i32 1
  %127 = load i32, ptr %126, align 4, !tbaa !115
  %128 = sext i32 %127 to i64
  %129 = mul i64 %123, %128
  %130 = sub i64 %121, %129
  %131 = load ptr, ptr %9, align 8, !tbaa !51
  %132 = getelementptr inbounds nuw %struct.AVStream, ptr %131, i32 0, i32 5
  %133 = getelementptr inbounds nuw %struct.AVRational, ptr %132, i32 0, i32 1
  %134 = load i32, ptr %133, align 4, !tbaa !115
  %135 = sext i32 %134 to i64
  %136 = mul i64 %130, %135
  %137 = load ptr, ptr %6, align 8, !tbaa !128
  %138 = getelementptr inbounds nuw %struct.AVPacket, ptr %137, i32 0, i32 2
  %139 = load i64, ptr %138, align 8, !tbaa !144
  %140 = load ptr, ptr %9, align 8, !tbaa !51
  %141 = getelementptr inbounds nuw %struct.AVStream, ptr %140, i32 0, i32 5
  %142 = getelementptr inbounds nuw %struct.AVRational, ptr %141, i32 0, i32 0
  %143 = load i32, ptr %142, align 8, !tbaa !63
  %144 = sext i32 %143 to i64
  %145 = mul i64 %139, %144
  %146 = mul i64 %145, 1000000
  %147 = load i32, ptr %12, align 4, !tbaa !16
  %148 = sext i32 %147 to i64
  %149 = load ptr, ptr %9, align 8, !tbaa !51
  %150 = getelementptr inbounds nuw %struct.AVStream, ptr %149, i32 0, i32 5
  %151 = getelementptr inbounds nuw %struct.AVRational, ptr %150, i32 0, i32 1
  %152 = load i32, ptr %151, align 4, !tbaa !115
  %153 = sext i32 %152 to i64
  %154 = mul i64 %148, %153
  %155 = sub i64 %146, %154
  %156 = load ptr, ptr %8, align 8, !tbaa !51
  %157 = getelementptr inbounds nuw %struct.AVStream, ptr %156, i32 0, i32 5
  %158 = getelementptr inbounds nuw %struct.AVRational, ptr %157, i32 0, i32 1
  %159 = load i32, ptr %158, align 4, !tbaa !115
  %160 = sext i32 %159 to i64
  %161 = mul i64 %155, %160
  %162 = sub i64 %136, %161
  store i64 %162, ptr %13, align 8, !tbaa !114
  store i64 0, ptr %14, align 8, !tbaa !114
  br label %163

163:                                              ; preds = %111, %71
  %164 = load i64, ptr %14, align 8, !tbaa !114
  %165 = load i64, ptr %13, align 8, !tbaa !114
  %166 = icmp sgt i64 %164, %165
  %167 = zext i1 %166 to i32
  %168 = load i64, ptr %14, align 8, !tbaa !114
  %169 = load i64, ptr %13, align 8, !tbaa !114
  %170 = icmp slt i64 %168, %169
  %171 = zext i1 %170 to i32
  %172 = sub nsw i32 %167, %171
  store i32 %172, ptr %10, align 4, !tbaa !16
  call void @llvm.lifetime.end.p0(i64 8, ptr %14) #11
  call void @llvm.lifetime.end.p0(i64 8, ptr %13) #11
  br label %173

173:                                              ; preds = %163, %53
  call void @llvm.lifetime.end.p0(i64 4, ptr %12) #11
  call void @llvm.lifetime.end.p0(i64 4, ptr %11) #11
  br label %174

174:                                              ; preds = %173, %3
  %175 = load i32, ptr %10, align 4, !tbaa !16
  %176 = icmp eq i32 %175, 0
  br i1 %176, label %177, label %186

177:                                              ; preds = %174
  %178 = load ptr, ptr %7, align 8, !tbaa !128
  %179 = getelementptr inbounds nuw %struct.AVPacket, ptr %178, i32 0, i32 5
  %180 = load i32, ptr %179, align 4, !tbaa !130
  %181 = load ptr, ptr %6, align 8, !tbaa !128
  %182 = getelementptr inbounds nuw %struct.AVPacket, ptr %181, i32 0, i32 5
  %183 = load i32, ptr %182, align 4, !tbaa !130
  %184 = icmp slt i32 %180, %183
  %185 = zext i1 %184 to i32
  store i32 %185, ptr %4, align 4
  store i32 1, ptr %17, align 4
  br label %190

186:                                              ; preds = %174
  %187 = load i32, ptr %10, align 4, !tbaa !16
  %188 = icmp sgt i32 %187, 0
  %189 = zext i1 %188 to i32
  store i32 %189, ptr %4, align 4
  store i32 1, ptr %17, align 4
  br label %190

190:                                              ; preds = %186, %177
  call void @llvm.lifetime.end.p0(i64 4, ptr %10) #11
  call void @llvm.lifetime.end.p0(i64 8, ptr %9) #11
  call void @llvm.lifetime.end.p0(i64 8, ptr %8) #11
  %191 = load i32, ptr %4, align 4
  ret i32 %191
}