; Function Attrs: nounwind uwtable
define internal range(i32 0, 2) i32 @interleave_compare_dts(ptr noundef readonly captures(none) %0, ptr noundef readonly captures(none) %1, ptr noundef readonly captures(none) %2) #0 {
  %4 = getelementptr inbounds nuw i8, ptr %0, i64 48
  %5 = load ptr, ptr %4, align 8, !tbaa !37
  %6 = getelementptr inbounds nuw i8, ptr %2, i64 36
  %7 = load i32, ptr %6, align 4, !tbaa !115
  %8 = sext i32 %7 to i64
  %9 = getelementptr inbounds ptr, ptr %5, i64 %8
  %10 = load ptr, ptr %9, align 8, !tbaa !38
  %11 = getelementptr inbounds nuw i8, ptr %1, i64 36
  %12 = load i32, ptr %11, align 4, !tbaa !115
  %13 = sext i32 %12 to i64
  %14 = getelementptr inbounds ptr, ptr %5, i64 %13
  %15 = load ptr, ptr %14, align 8, !tbaa !38
  %16 = getelementptr inbounds nuw i8, ptr %1, i64 16
  %17 = load i64, ptr %16, align 8, !tbaa !124
  %18 = getelementptr inbounds nuw i8, ptr %15, i64 32
  %19 = getelementptr inbounds nuw i8, ptr %2, i64 16
  %20 = load i64, ptr %19, align 8, !tbaa !124
  %21 = getelementptr inbounds nuw i8, ptr %10, i64 32
  %22 = load i64, ptr %18, align 8
  %23 = load i64, ptr %21, align 8
  %24 = tail call i32 @av_compare_ts(i64 noundef %17, i64 %22, i64 noundef %20, i64 %23) #13
  %25 = getelementptr inbounds nuw i8, ptr %0, i64 284
  %26 = load i32, ptr %25, align 4, !tbaa !137
  %.not = icmp eq i32 %26, 0
  br i1 %.not, label %66, label %27

27:                                               ; preds = %3
  %28 = getelementptr inbounds nuw i8, ptr %10, i64 16
  %29 = load ptr, ptr %28, align 8, !tbaa !40
  %30 = load i32, ptr %29, align 8, !tbaa !48
  %31 = icmp eq i32 %30, 1
  %32 = getelementptr inbounds nuw i8, ptr %15, i64 16
  %33 = load ptr, ptr %32, align 8, !tbaa !40
  %34 = load i32, ptr %33, align 8, !tbaa !48
  %35 = icmp eq i32 %34, 1
  %36 = xor i1 %31, %35
  br i1 %36, label %37, label %66

37:                                               ; preds = %27
  %38 = select i1 %31, i32 %26, i32 0
  %39 = select i1 %35, i32 %26, i32 0
  %40 = load i64, ptr %19, align 8, !tbaa !124
  %41 = load i64, ptr %21, align 8
  %42 = tail call i64 @av_rescale_q(i64 noundef %40, i64 %41, i64 4294967296000001) #14
  %43 = sext i32 %38 to i64
  %44 = sub nsw i64 %42, %43
  %45 = load i64, ptr %16, align 8, !tbaa !124
  %46 = load i64, ptr %18, align 8
  %47 = tail call i64 @av_rescale_q(i64 noundef %45, i64 %46, i64 4294967296000001) #14
  %48 = sext i32 %39 to i64
  %49 = sub nsw i64 %47, %48
  %50 = icmp eq i64 %44, %49
  br i1 %50, label %51, label %64

51:                                               ; preds = %37
  %sext = shl i64 %41, 32
  %52 = ashr exact i64 %sext, 32
  %53 = mul i64 %40, 1000000
  %54 = mul i64 %53, %52
  %55 = ashr i64 %41, 32
  %56 = mul nsw i64 %55, %43
  %57 = sub i64 %54, %56
  %58 = ashr i64 %46, 32
  %59 = mul i64 %57, %58
  %sext59 = shl i64 %46, 32
  %60 = ashr exact i64 %sext59, 32
  %61 = mul i64 %45, -1000000
  %.neg55 = mul i64 %61, %60
  %62 = mul nsw i64 %58, %48
  %.neg = add i64 %.neg55, %62
  %.neg54 = mul i64 %.neg, %55
  %63 = add i64 %.neg54, %59
  br label %64

64:                                               ; preds = %51, %37
  %.047 = phi i64 [ %63, %51 ], [ %44, %37 ]
  %.046 = phi i64 [ 0, %51 ], [ %49, %37 ]
  %65 = tail call i32 @llvm.scmp.i32.i64(i64 %.046, i64 %.047)
  br label %66

66:                                               ; preds = %27, %64, %3
  %.045 = phi i32 [ %24, %3 ], [ %65, %64 ], [ %24, %27 ]
  %67 = icmp eq i32 %.045, 0
  br i1 %67, label %68, label %72

68:                                               ; preds = %66
  %69 = load i32, ptr %6, align 4, !tbaa !115
  %70 = load i32, ptr %11, align 4, !tbaa !115
  %71 = icmp slt i32 %69, %70
  br label %74

72:                                               ; preds = %66
  %73 = icmp sgt i32 %.045, 0
  br label %74

74:                                               ; preds = %72, %68
  %.0.in = phi i1 [ %71, %68 ], [ %73, %72 ]
  %.0 = zext i1 %.0.in to i32
  ret i32 %.0
}